target datalayout = "e-m:e-p270:32:32-p271:32:32-p272:64:64-i64:64-i128:128-f80:128-n8:16:32:64-S128"
target triple = "x86_64-unknown-linux-gnu"

%"struct.llvh::fltSemantics" = type { i16, i16, i32, i32 }
%"class.llvh::hash_code" = type { i64 }
%"class.llvh::APFloat" = type { [8 x i8], %"union.llvh::APFloat::Storage" }
%"union.llvh::APFloat::Storage" = type { %"class.llvh::detail::DoubleAPFloat", [8 x i8] }
%"class.llvh::detail::DoubleAPFloat" = type { ptr, %"class.std::unique_ptr" }
%"class.std::unique_ptr" = type { %"struct.std::__uniq_ptr_data" }
%"struct.std::__uniq_ptr_data" = type { %"class.std::__uniq_ptr_impl" }
%"class.std::__uniq_ptr_impl" = type { %"class.std::tuple" }
%"class.std::tuple" = type { %"struct.std::_Tuple_impl" }
%"struct.std::_Tuple_impl" = type { %"struct.std::_Head_base.3" }
%"struct.std::_Head_base.3" = type { ptr }

@_ZN4llvhL18semPPCDoubleDoubleE = internal constant %"struct.llvh::fltSemantics" { i16 -1, i16 0, i32 0, i32 0 }, align 4

; Function Attrs: mustprogress nounwind willreturn memory(none) uwtable
define hidden noundef nonnull align 4 dereferenceable(12) ptr @_ZN4llvh11APFloatBase15PPCDoubleDoubleEv() #0 align 2 {
entry:
  ret ptr @_ZN4llvhL18semPPCDoubleDoubleE
}

; Function Attrs: mustprogress nounwind uwtable
define linkonce_odr hidden noundef zeroext i1 @_ZN4llvh7APFloat10usesLayoutINS_6detail13DoubleAPFloatEEEbRKNS_12fltSemanticsE(ptr noundef nonnull align 4 dereferenceable(12) %Semantics) #1 comdat align 2 {
entry:
  %Semantics.addr = alloca ptr, align 8
  store ptr %Semantics, ptr %Semantics.addr, align 8
  %0 = load ptr, ptr %Semantics.addr, align 8
  %call = call noundef nonnull align 4 dereferenceable(12) ptr @_ZN4llvh11APFloatBase15PPCDoubleDoubleEv() #16
  %cmp = icmp eq ptr %0, %call
  ret i1 %cmp
}

; Function Attrs: mustprogress nounwind uwtable
define linkonce_odr hidden noundef zeroext i1 @_ZN4llvh7APFloat10usesLayoutINS_6detail9IEEEFloatEEEbRKNS_12fltSemanticsE(ptr noundef nonnull align 4 dereferenceable(12) %Semantics) #1 comdat align 2 {
entry:
  %Semantics.addr = alloca ptr, align 8
  store ptr %Semantics, ptr %Semantics.addr, align 8
  %0 = load ptr, ptr %Semantics.addr, align 8
  %call = call noundef nonnull align 4 dereferenceable(12) ptr @_ZN4llvh11APFloatBase15PPCDoubleDoubleEv() #16
  %cmp = icmp ne ptr %0, %call
  ret i1 %cmp
}

; Function Attrs: mustprogress nounwind uwtable
define linkonce_odr hidden noundef nonnull align 4 dereferenceable(12) ptr @_ZNK4llvh7APFloat12getSemanticsEv(ptr noundef nonnull align 8 dereferenceable(32) %this) #1 comdat align 2 {
entry:
  %this.addr = alloca ptr, align 8
  store ptr %this, ptr %this.addr, align 8
  %this1 = load ptr, ptr %this.addr, align 8
  %U = getelementptr inbounds %"class.llvh::APFloat", ptr %this1, i32 0, i32 1
  %0 = load ptr, ptr %U, align 8
  ret ptr %0
}

; Function Attrs: mustprogress nounwind uwtable
define hidden i64 @_ZN4llvh10hash_valueERKNS_7APFloatE(ptr noundef nonnull align 8 dereferenceable(32) %Arg) #1 {
entry:
  %retval = alloca %"class.llvh::hash_code", align 8
  %Arg.addr = alloca ptr, align 8
  store ptr %Arg, ptr %Arg.addr, align 8
  %0 = load ptr, ptr %Arg.addr, align 8
  %call = call noundef nonnull align 4 dereferenceable(12) ptr @_ZNK4llvh7APFloat12getSemanticsEv(ptr noundef nonnull align 8 dereferenceable(32) %0)
  %call1 = call noundef zeroext i1 @_ZN4llvh7APFloat10usesLayoutINS_6detail9IEEEFloatEEEbRKNS_12fltSemanticsE(ptr noundef nonnull align 4 dereferenceable(12) %call)
  br i1 %call1, label %if.then, label %if.end

if.then:                                          ; preds = %entry
  %1 = load ptr, ptr %Arg.addr, align 8
  %U = getelementptr inbounds %"class.llvh::APFloat", ptr %1, i32 0, i32 1
  %call2 = call i64 @_ZN4llvh6detail10hash_valueERKNS0_9IEEEFloatE(ptr noundef nonnull align 8 dereferenceable(24) %U)
  %coerce.dive = getelementptr inbounds %"class.llvh::hash_code", ptr %retval, i32 0, i32 0
  store i64 %call2, ptr %coerce.dive, align 8
  br label %return

if.end:                                           ; preds = %entry
  %2 = load ptr, ptr %Arg.addr, align 8
  %call3 = call noundef nonnull align 4 dereferenceable(12) ptr @_ZNK4llvh7APFloat12getSemanticsEv(ptr noundef nonnull align 8 dereferenceable(32) %2)
  %call4 = call noundef zeroext i1 @_ZN4llvh7APFloat10usesLayoutINS_6detail13DoubleAPFloatEEEbRKNS_12fltSemanticsE(ptr noundef nonnull align 4 dereferenceable(12) %call3)
  br i1 %call4, label %if.then5, label %if.end9

if.then5:                                         ; preds = %if.end
  %3 = load ptr, ptr %Arg.addr, align 8
  %U6 = getelementptr inbounds %"class.llvh::APFloat", ptr %3, i32 0, i32 1
  %call7 = call i64 @_ZN4llvh6detail10hash_valueERKNS0_13DoubleAPFloatE(ptr noundef nonnull align 8 dereferenceable(16) %U6)
  %coerce.dive8 = getelementptr inbounds %"class.llvh::hash_code", ptr %retval, i32 0, i32 0
  store i64 %call7, ptr %coerce.dive8, align 8
  br label %return

if.end9:                                          ; preds = %if.end
  unreachable

return:                                           ; preds = %if.then5, %if.then
  %coerce.dive10 = getelementptr inbounds %"class.llvh::hash_code", ptr %retval, i32 0, i32 0
  %4 = load i64, ptr %coerce.dive10, align 8
  ret i64 %4
}