; Function Attrs: mustprogress nounwind uwtable
define hidden i64 @_ZN4llvh10hash_valueERKNS_7APFloatE(ptr noundef nonnull align 8 dereferenceable(32) %Arg) local_unnamed_addr #2 {
entry:
  %U.i = getelementptr inbounds nuw i8, ptr %Arg, i64 8
  %0 = load ptr, ptr %U.i, align 8
  %cmp.i.not = icmp eq ptr %0, @_ZN4llvhL18semPPCDoubleDoubleE
  br i1 %cmp.i.not, label %if.end, label %if.then

if.then:                                          ; preds = %entry
  %call2 = tail call i64 @_ZN4llvh6detail10hash_valueERKNS0_9IEEEFloatE(ptr noundef nonnull align 8 dereferenceable(24) %U.i)
  br label %return

if.end:                                           ; preds = %entry
  %call7 = tail call i64 @_ZN4llvh6detail10hash_valueERKNS0_13DoubleAPFloatE(ptr noundef nonnull align 8 dereferenceable(16) %U.i)
  br label %return

return:                                           ; preds = %if.end, %if.then
  %retval.sroa.0.0 = phi i64 [ %call2, %if.then ], [ %call7, %if.end ]
  ret i64 %retval.sroa.0.0
}